; Function Attrs: mustprogress nofree nounwind willreturn memory(readwrite, inaccessiblemem: write) uwtable
define internal void @_ZN19OpenColorIO_v2_4dev12_GLOBAL__N_115ECVideoRenderer10updateDataERSt10shared_ptrIKNS_22ExposureContrastOpDataEE(ptr nocapture noundef nonnull writeonly align 8 dereferenceable(64) %this, ptr nocapture noundef nonnull readonly align 8 dereferenceable(16) %ec) unnamed_addr #18 align 2 {
entry:
  %0 = load ptr, ptr %ec, align 8
  %m_pivot.i = getelementptr inbounds i8, ptr %0, i64 224
  %1 = load double, ptr %m_pivot.i, align 8
  %cmp.i = fcmp ogt double %1, 1.000000e-03
  %.sroa.speculated = select i1 %cmp.i, double %1, double 1.000000e-03
  %conv = fptrunc double %.sroa.speculated to float
  %call4 = tail call float @powf(float noundef %conv, float noundef 0x3FE17C80C0000000) #23
  %m_pivot = getelementptr inbounds i8, ptr %this, i64 56
  store float %call4, ptr %m_pivot, align 8
  ret void
}